; ModuleID = '35/931.c'
source_filename = "35/931.c"
target datalayout = "e-m:e-p270:32:32-p271:32:32-p272:64:64-i64:64-f80:128-n8:16:32:64-S128"
target triple = "x86_64-pc-linux-gnu"

@.str = private unnamed_addr constant [6 x i8] c"%d,%d\00", align 1
@.str.1 = private unnamed_addr constant [3 x i8] c"%d\00", align 1
@.str.2 = private unnamed_addr constant [7 x i8] c"%d+%d\0A\00", align 1
@.str.3 = private unnamed_addr constant [4 x i8] c"No\0A\00", align 1

; Function Attrs: noinline nounwind uwtable
define dso_local void @main() #0 {
  %1 = alloca [8 x [8 x i32]], align 16
  %2 = alloca i32, align 4
  %3 = alloca i32, align 4
  %4 = alloca i32, align 4
  %5 = alloca i32, align 4
  %6 = alloca i32, align 4
  %7 = alloca i32, align 4
  %8 = alloca i32, align 4
  %9 = alloca i32, align 4
  %10 = alloca i32, align 4
  %11 = alloca i32, align 4
  %12 = alloca i32, align 4
  store i32 0, i32* %9, align 4
  store i32 0, i32* %10, align 4
  %13 = call i32 (i8*, ...) @__isoc99_scanf(i8* getelementptr inbounds ([6 x i8], [6 x i8]* @.str, i64 0, i64 0), i32* %11, i32* %12)
  store i32 0, i32* %2, align 4
  br label %14

14:                                               ; preds = %37, %0
  %15 = load i32, i32* %2, align 4
  %16 = load i32, i32* %11, align 4
  %17 = sub nsw i32 %16, 1
  %18 = icmp sle i32 %15, %17
  br i1 %18, label %19, label %40

19:                                               ; preds = %14
  store i32 0, i32* %3, align 4
  br label %20

20:                                               ; preds = %33, %19
  %21 = load i32, i32* %3, align 4
  %22 = load i32, i32* %12, align 4
  %23 = sub nsw i32 %22, 1
  %24 = icmp sle i32 %21, %23
  br i1 %24, label %25, label %36

25:                                               ; preds = %20
  %26 = load i32, i32* %2, align 4
  %27 = sext i32 %26 to i64
  %28 = getelementptr inbounds [8 x [8 x i32]], [8 x [8 x i32]]* %1, i64 0, i64 %27
  %29 = load i32, i32* %3, align 4
  %30 = sext i32 %29 to i64
  %31 = getelementptr inbounds [8 x i32], [8 x i32]* %28, i64 0, i64 %30
  %32 = call i32 (i8*, ...) @__isoc99_scanf(i8* getelementptr inbounds ([3 x i8], [3 x i8]* @.str.1, i64 0, i64 0), i32* %31)
  br label %33

33:                                               ; preds = %25
  %34 = load i32, i32* %3, align 4
  %35 = add nsw i32 %34, 1
  store i32 %35, i32* %3, align 4
  br label %20

36:                                               ; preds = %20
  br label %37

37:                                               ; preds = %36
  %38 = load i32, i32* %2, align 4
  %39 = add nsw i32 %38, 1
  store i32 %39, i32* %2, align 4
  br label %14

40:                                               ; preds = %14
  store i32 0, i32* %2, align 4
  br label %41

41:                                               ; preds = %117, %40
  %42 = load i32, i32* %2, align 4
  %43 = load i32, i32* %11, align 4
  %44 = sub nsw i32 %43, 1
  %45 = icmp sle i32 %42, %44
  br i1 %45, label %46, label %120

46:                                               ; preds = %41
  store i32 0, i32* %3, align 4
  br label %47

47:                                               ; preds = %73, %46
  %48 = load i32, i32* %3, align 4
  %49 = load i32, i32* %12, align 4
  %50 = sub nsw i32 %49, 1
  %51 = icmp sle i32 %48, %50
  br i1 %51, label %52, label %76

52:                                               ; preds = %47
  %53 = load i32, i32* %2, align 4
  %54 = sext i32 %53 to i64
  %55 = getelementptr inbounds [8 x [8 x i32]], [8 x [8 x i32]]* %1, i64 0, i64 %54
  %56 = load i32, i32* %3, align 4
  %57 = sext i32 %56 to i64
  %58 = getelementptr inbounds [8 x i32], [8 x i32]* %55, i64 0, i64 %57
  %59 = load i32, i32* %58, align 4
  %60 = load i32, i32* %9, align 4
  %61 = icmp sgt i32 %59, %60
  br i1 %61, label %62, label %72

62:                                               ; preds = %52
  %63 = load i32, i32* %2, align 4
  %64 = sext i32 %63 to i64
  %65 = getelementptr inbounds [8 x [8 x i32]], [8 x [8 x i32]]* %1, i64 0, i64 %64
  %66 = load i32, i32* %3, align 4
  %67 = sext i32 %66 to i64
  %68 = getelementptr inbounds [8 x i32], [8 x i32]* %65, i64 0, i64 %67
  %69 = load i32, i32* %68, align 4
  store i32 %69, i32* %9, align 4
  %70 = load i32, i32* %2, align 4
  store i32 %70, i32* %7, align 4
  %71 = load i32, i32* %3, align 4
  store i32 %71, i32* %8, align 4
  br label %72

72:                                               ; preds = %62, %52
  br label %73

73:                                               ; preds = %72
  %74 = load i32, i32* %3, align 4
  %75 = add nsw i32 %74, 1
  store i32 %75, i32* %3, align 4
  br label %47

76:                                               ; preds = %47
  store i32 0, i32* %4, align 4
  br label %77

77:                                               ; preds = %102, %76
  %78 = load i32, i32* %4, align 4
  %79 = load i32, i32* %11, align 4
  %80 = sub nsw i32 %79, 1
  %81 = icmp sle i32 %78, %80
  br i1 %81, label %82, label %105

82:                                               ; preds = %77
  %83 = load i32, i32* %7, align 4
  %84 = sext i32 %83 to i64
  %85 = getelementptr inbounds [8 x [8 x i32]], [8 x [8 x i32]]* %1, i64 0, i64 %84
  %86 = load i32, i32* %8, align 4
  %87 = sext i32 %86 to i64
  %88 = getelementptr inbounds [8 x i32], [8 x i32]* %85, i64 0, i64 %87
  %89 = load i32, i32* %88, align 4
  %90 = load i32, i32* %4, align 4
  %91 = sext i32 %90 to i64
  %92 = getelementptr inbounds [8 x [8 x i32]], [8 x [8 x i32]]* %1, i64 0, i64 %91
  %93 = load i32, i32* %8, align 4
  %94 = sext i32 %93 to i64
  %95 = getelementptr inbounds [8 x i32], [8 x i32]* %92, i64 0, i64 %94
  %96 = load i32, i32* %95, align 4
  %97 = icmp slt i32 %89, %96
  br i1 %97, label %98, label %101

98:                                               ; preds = %82
  %99 = load i32, i32* %10, align 4
  %100 = add nsw i32 %99, 1
  store i32 %100, i32* %10, align 4
  br label %101

101:                                              ; preds = %98, %82
  br label %102

102:                                              ; preds = %101
  %103 = load i32, i32* %4, align 4
  %104 = add nsw i32 %103, 1
  store i32 %104, i32* %4, align 4
  br label %77

105:                                              ; preds = %77
  %106 = load i32, i32* %10, align 4
  %107 = load i32, i32* %11, align 4
  %108 = sub nsw i32 %107, 1
  %109 = icmp eq i32 %106, %108
  br i1 %109, label %110, label %114

110:                                              ; preds = %105
  %111 = load i32, i32* %7, align 4
  %112 = load i32, i32* %8, align 4
  %113 = call i32 (i8*, ...) @printf(i8* getelementptr inbounds ([7 x i8], [7 x i8]* @.str.2, i64 0, i64 0), i32 %111, i32 %112)
  br label %116

114:                                              ; preds = %105
  %115 = call i32 (i8*, ...) @printf(i8* getelementptr inbounds ([4 x i8], [4 x i8]* @.str.3, i64 0, i64 0))
  br label %116

116:                                              ; preds = %114, %110
  br label %120

117:                                              ; No predecessors!
  %118 = load i32, i32* %2, align 4
  %119 = add nsw i32 %118, 1
  store i32 %119, i32* %2, align 4
  br label %41

120:                                              ; preds = %116, %41
  ret void
}

declare dso_local i32 @__isoc99_scanf(i8*, ...) #1

declare dso_local i32 @printf(i8*, ...) #1


!llvm.module.flags = !{!0}
!llvm.ident = !{!1}

!0 = !{i32 1, !"wchar_size", i32 4}
!1 = !{!"clang version 10.0.0-4ubuntu1 "}
